target datalayout = "e-m:e-p270:32:32-p271:32:32-p272:64:64-i64:64-i128:128-f80:128-n8:16:32:64-S128"
target triple = "x86_64-pc-linux-gnu"

@GLES2_Fragment_Solid = internal constant [76 x i8] c"varying mediump vec4 v_color;\0A\0Avoid main()\0A{\0A    gl_FragColor = v_color;\0A}\0A\00", align 16

; Function Attrs: nounwind uwtable
define hidden ptr @GLES2_GetShader(i32 noundef %0) #0 {
  %2 = alloca ptr, align 8
  %3 = alloca i32, align 4
  store i32 %0, ptr %3, align 4
  %4 = load i32, ptr %3, align 4
  switch i32 %4, label %21 [
    i32 0, label %5
    i32 1, label %6
    i32 2, label %7
    i32 3, label %8
    i32 5, label %9
    i32 4, label %10
    i32 6, label %11
    i32 7, label %12
    i32 9, label %13
    i32 8, label %14
    i32 10, label %15
    i32 11, label %16
    i32 12, label %17
    i32 13, label %18
    i32 14, label %19
    i32 15, label %20
  ]

5:                                                ; preds = %1
  store ptr @GLES2_Vertex_Default, ptr %2, align 8
  br label %22

6:                                                ; preds = %1
  store ptr @GLES2_Fragment_Solid, ptr %2, align 8
  br label %22

7:                                                ; preds = %1
  store ptr @GLES2_Fragment_TextureABGR, ptr %2, align 8
  br label %22

8:                                                ; preds = %1
  store ptr @GLES2_Fragment_TextureARGB, ptr %2, align 8
  br label %22

9:                                                ; preds = %1
  store ptr @GLES2_Fragment_TextureRGB, ptr %2, align 8
  br label %22

10:                                               ; preds = %1
  store ptr @GLES2_Fragment_TextureBGR, ptr %2, align 8
  br label %22

11:                                               ; preds = %1
  store ptr @GLES2_Fragment_TextureABGR_PixelArt, ptr %2, align 8
  br label %22

12:                                               ; preds = %1
  store ptr @GLES2_Fragment_TextureARGB_PixelArt, ptr %2, align 8
  br label %22

13:                                               ; preds = %1
  store ptr @GLES2_Fragment_TextureRGB_PixelArt, ptr %2, align 8
  br label %22

14:                                               ; preds = %1
  store ptr @GLES2_Fragment_TextureBGR_PixelArt, ptr %2, align 8
  br label %22

15:                                               ; preds = %1
  store ptr @GLES2_Fragment_TextureYUV, ptr %2, align 8
  br label %22

16:                                               ; preds = %1
  store ptr @GLES2_Fragment_TextureNV12_RA, ptr %2, align 8
  br label %22

17:                                               ; preds = %1
  store ptr @GLES2_Fragment_TextureNV12_RG, ptr %2, align 8
  br label %22

18:                                               ; preds = %1
  store ptr @GLES2_Fragment_TextureNV21_RA, ptr %2, align 8
  br label %22

19:                                               ; preds = %1
  store ptr @GLES2_Fragment_TextureNV21_RG, ptr %2, align 8
  br label %22

20:                                               ; preds = %1
  store ptr @GLES2_Fragment_TextureExternalOES, ptr %2, align 8
  br label %22

21:                                               ; preds = %1
  store ptr null, ptr %2, align 8
  br label %22

22:                                               ; preds = %21, %20, %19, %18, %17, %16, %15, %14, %13, %12, %11, %10, %9, %8, %7, %6, %5
  %23 = load ptr, ptr %2, align 8
  ret ptr %23
}